Certificate:
    Data:
        Version: 3 (0x2)
        Serial Number: 1 (0x1)
        Signature Algorithm: md5WithRSAEncryption
        Issuer: C=DE, ST=Bavaria, L=Eching, O=State of Mind, CN=server.office.state-of-mind.de/emailAddress=p@state-of-mind.de
        Validity
            Not Before: Feb  3 11:31:39 2005 GMT
            Not After : Feb  3 11:31:39 2006 GMT
        Subject: C=DE, ST=Bavaria, L=Eching, O=State of Mind, CN=patrick/emailAddress=p@state-of-mind.de
        Subject Public Key Info:
            Public Key Algorithm: rsaEncryption
            RSA Public Key: (1024 bit)
                Modulus (1024 bit):
                    00:e3:1e:8a:cf:5d:45:e0:c7:cd:3b:b7:21:2f:69:
                    4d:af:3d:b7:83:36:a1:5f:e1:b3:62:c4:ca:41:0c:
                    a7:d4:de:07:14:50:2f:2c:9c:de:77:2b:d2:43:e5:
                    c8:11:e4:9f:88:0f:76:c2:f7:d7:94:90:ad:d8:94:
                    49:3c:87:e2:6c:ad:7c:41:d3:1c:b4:7e:1c:d2:6b:
                    f4:00:e5:b2:85:98:aa:f3:82:96:ed:34:13:9a:b7:
                    9b:0c:41:c7:34:86:a5:f3:e1:75:a0:e3:dc:2d:81:
                    df:39:6c:89:69:b7:f1:f6:b5:08:6b:dc:60:85:34:
                    16:c8:69:49:00:3b:44:79:e7
                Exponent: 65537 (0x10001)
        X509v3 extensions:
            X509v3 Basic Constraints: 
            CA:FALSE
            Netscape Comment: 
            OpenSSL Generated Certificate
            X509v3 Subject Key Identifier: 
            B9:20:22:00:50:34:65:86:7F:14:EF:00:70:F9:86:54:13:68:1A:4D
            X509v3 Authority Key Identifier: 
            keyid:70:89:0C:9F:42:CC:6E:CC:51:E2:B3:63:0E:94:C6:50:01:7F:0E:AD
            DirName:/C=DE/ST=Bavaria/L=Eching/O=State of Mind/CN=server.office.state-of-mind.de/emailAddress=p@state-of-mind.de
            serial:00

    Signature Algorithm: md5WithRSAEncryption
        7c:d4:59:b7:73:8f:6f:49:ac:82:05:fe:e5:a0:4a:4a:9c:84:
        d0:52:51:60:a5:8b:49:46:60:9a:e2:af:2d:e2:8f:bd:e2:09:
        f9:25:11:d8:56:4e:07:3e:85:81:83:40:33:db:7d:6f:9f:6b:
        e7:05:a1:57:6c:92:a8:85:85:38:8d:f5:89:8b:ed:b5:67:c7:
        32:cf:60:7f:0c:9e:2c:69:8d:e9:08:9f:02:c6:69:1a:b6:8e:
        aa:b3:da:65:0a:fd:33:cb:9e:0a:ee:92:f0:a6:b3:2c:dd:b6:
        4d:19:ef:a6:03:f4:1c:38:e1:d8:84:d5:da:8b:bf:16:0f:ff:
        2c:11
-----BEGIN CERTIFICATE-----
MIIDqjCCAxOgAwIBAgIBATANBgkqhkiG9w0BAQQFADCBlDELMAkGA1UEBhMCREUx
EDAOBgNVBAgTB0JhdmFyaWExDzANBgNVBAcTBkVjaGluZzEWMBQGA1UEChMNU3Rh
dGUgb2YgTWluZDEnMCUGA1UEAxMec2VydmVyLm9mZmljZS5zdGF0ZS1vZi1taW5k
LmRlMSEwHwYJKoZIhvcNAQkBFhJwQHN0YXRlLW9mLW1pbmQuZGUwHhcNMDUwMjAz
MTEzMTM5WhcNMDYwMjAzMTEzMTM5WjB9MQswCQYDVQQGEwJERTEQMA4GA1UECBMH
QmF2YXJpYTEPMA0GA1UEBxMGRWNoaW5nMRYwFAYDVQQKEw1TdGF0ZSBvZiBNaW5k
MRAwDgYDVQQDEwdwYXRyaWNrMSEwHwYJKoZIhvcNAQkBFhJwQHN0YXRlLW9mLW1p
bmQuZGUwgZ8wDQYJKoZIhvcNAQEBBQADgY0AMIGJAoGBAOMeis9dReDHzTu3IS9p
Ta89t4M2oV/hs2LEykEMp9TeBxRQLyyc3ncr0kPlyBHkn4gPdsL315SQrdiUSTyH
4mytfEHTHLR+HNJr9ADlsoWYqvOClu00E5q3mwxBxzSGpfPhdaDj3C2B3zlsiWm3
8fa1CGvcYIU0FshpSQA7RHnnAgMBAAGjggEgMIIBHDAJBgNVHRMEAjAAMCwGCWCG
SAGG+EIBDQQfFh1PcGVuU1NMIEdlbmVyYXRlZCBDZXJ0aWZpY2F0ZTAdBgNVHQ4E
FgQUuSAiAFA0ZYZ/FO8AcPmGVBNoGk0wgcEGA1UdIwSBuTCBtoAUcIkMn0LMbsxR
4rNjDpTGUAF/Dq2hgZqkgZcwgZQxCzAJBgNVBAYTAkRFMRAwDgYDVQQIEwdCYXZh
cmlhMQ8wDQYDVQQHEwZFY2hpbmcxFjAUBgNVBAoTDVN0YXRlIG9mIE1pbmQxJzAl
BgNVBAMTHnNlcnZlci5vZmZpY2Uuc3RhdGUtb2YtbWluZC5kZTEhMB8GCSqGSIb3
DQEJARYScEBzdGF0ZS1vZi1taW5kLmRlggEAMA0GCSqGSIb3DQEBBAUAA4GBAHzU
Wbdzj29JrIIF/uWgSkqchNBSUWCli0lGYJriry3ij73iCfklEdhWTgc+hYGDQDPb
fW+fa+cFoVdskqiFhTiN9YmL7bVnxzLPYH8MnixpjekInwLGaRq2jqqz2mUK/TPL
ngrukvCmsyzdtk0Z76YD9Bw44diE1dqLvxYP/ywR
-----END CERTIFICATE-----
