Certificate:
    Data:
        Version: 3 (0x2)
        Serial Number: 2 (0x2)
        Signature Algorithm: md5WithRSAEncryption
        Issuer: C=DE, ST=Bavaria, L=Eching, O=State of Mind, CN=server.office.state-of-mind.de/emailAddress=p@state-of-mind.de
        Validity
            Not Before: Feb  3 11:31:55 2005 GMT
            Not After : Feb  3 11:31:55 2006 GMT
        Subject: C=DE, ST=Bavaria, L=Eching, O=State of Mind, CN=ralf/emailAddress=r@state-of-mind.de
        Subject Public Key Info:
            Public Key Algorithm: rsaEncryption
            RSA Public Key: (1024 bit)
                Modulus (1024 bit):
                    00:dc:13:de:86:c4:62:07:71:cd:9f:3f:f5:48:73:
                    b9:29:6d:27:4b:70:1a:5f:1e:6f:7a:7e:50:c4:63:
                    61:e1:9f:6c:3a:1a:b8:29:a9:7e:97:31:ef:04:ac:
                    31:c8:f6:83:06:c8:45:24:1d:b5:04:a1:58:3c:0d:
                    c1:93:48:65:06:6d:03:a6:db:60:1a:13:31:9c:5e:
                    4b:c2:f6:82:76:c4:5a:f7:23:42:79:01:a8:d7:3f:
                    93:16:a0:36:53:b6:70:88:8c:9d:a1:44:a6:69:82:
                    aa:85:35:e8:27:d8:26:b2:13:bc:5d:05:ed:2c:bf:
                    ca:6c:25:22:6b:a6:96:c3:e1
                Exponent: 65537 (0x10001)
        X509v3 extensions:
            X509v3 Basic Constraints: 
            CA:FALSE
            Netscape Comment: 
            OpenSSL Generated Certificate
            X509v3 Subject Key Identifier: 
            EB:8E:E3:A4:89:4E:54:0B:D1:05:5B:ED:48:F9:19:72:49:74:0B:18
            X509v3 Authority Key Identifier: 
            keyid:70:89:0C:9F:42:CC:6E:CC:51:E2:B3:63:0E:94:C6:50:01:7F:0E:AD
            DirName:/C=DE/ST=Bavaria/L=Eching/O=State of Mind/CN=server.office.state-of-mind.de/emailAddress=p@state-of-mind.de
            serial:00

    Signature Algorithm: md5WithRSAEncryption
        33:05:e0:58:6b:d0:1a:03:df:f0:46:c5:8f:4b:eb:28:37:95:
        4c:5c:34:2c:eb:c6:d1:09:17:9f:e9:ec:32:7e:4b:60:50:c8:
        10:de:65:7b:3b:8a:da:fb:7f:fd:c4:98:9a:87:24:33:c4:b5:
        bf:f4:1e:93:a5:f5:a5:e7:69:a4:e0:ec:2a:84:64:97:c7:5e:
        0d:e0:07:ea:06:c2:2a:58:fa:a0:d6:d5:8a:93:95:1d:55:ec:
        2b:b6:b2:cd:4b:1c:c3:41:bf:09:ee:42:38:3a:d1:c6:f1:f7:
        66:88:79:1f:77:1f:db:3c:20:ef:cb:97:b2:07:b4:f2:1c:63:
        c5:1c
-----BEGIN CERTIFICATE-----
MIIDpzCCAxCgAwIBAgIBAjANBgkqhkiG9w0BAQQFADCBlDELMAkGA1UEBhMCREUx
EDAOBgNVBAgTB0JhdmFyaWExDzANBgNVBAcTBkVjaGluZzEWMBQGA1UEChMNU3Rh
dGUgb2YgTWluZDEnMCUGA1UEAxMec2VydmVyLm9mZmljZS5zdGF0ZS1vZi1taW5k
LmRlMSEwHwYJKoZIhvcNAQkBFhJwQHN0YXRlLW9mLW1pbmQuZGUwHhcNMDUwMjAz
MTEzMTU1WhcNMDYwMjAzMTEzMTU1WjB6MQswCQYDVQQGEwJERTEQMA4GA1UECBMH
QmF2YXJpYTEPMA0GA1UEBxMGRWNoaW5nMRYwFAYDVQQKEw1TdGF0ZSBvZiBNaW5k
MQ0wCwYDVQQDEwRyYWxmMSEwHwYJKoZIhvcNAQkBFhJyQHN0YXRlLW9mLW1pbmQu
ZGUwgZ8wDQYJKoZIhvcNAQEBBQADgY0AMIGJAoGBANwT3obEYgdxzZ8/9UhzuSlt
J0twGl8eb3p+UMRjYeGfbDoauCmpfpcx7wSsMcj2gwbIRSQdtQShWDwNwZNIZQZt
A6bbYBoTMZxeS8L2gnbEWvcjQnkBqNc/kxagNlO2cIiMnaFEpmmCqoU16CfYJrIT
vF0F7Sy/ymwlImumlsPhAgMBAAGjggEgMIIBHDAJBgNVHRMEAjAAMCwGCWCGSAGG
+EIBDQQfFh1PcGVuU1NMIEdlbmVyYXRlZCBDZXJ0aWZpY2F0ZTAdBgNVHQ4EFgQU
647jpIlOVAvRBVvtSPkZckl0CxgwgcEGA1UdIwSBuTCBtoAUcIkMn0LMbsxR4rNj
DpTGUAF/Dq2hgZqkgZcwgZQxCzAJBgNVBAYTAkRFMRAwDgYDVQQIEwdCYXZhcmlh
MQ8wDQYDVQQHEwZFY2hpbmcxFjAUBgNVBAoTDVN0YXRlIG9mIE1pbmQxJzAlBgNV
BAMTHnNlcnZlci5vZmZpY2Uuc3RhdGUtb2YtbWluZC5kZTEhMB8GCSqGSIb3DQEJ
ARYScEBzdGF0ZS1vZi1taW5kLmRlggEAMA0GCSqGSIb3DQEBBAUAA4GBADMF4Fhr
0BoD3/BGxY9L6yg3lUxcNCzrxtEJF5/p7DJ+S2BQyBDeZXs7itr7f/3EmJqHJDPE
tb/0HpOl9aXnaaTg7CqEZJfHXg3gB+oGwipY+qDW1YqTlR1V7Cu2ss1LHMNBvwnu
Qjg60cbx92aIeR93H9s8IO/Ll7IHtPIcY8Uc
-----END CERTIFICATE-----
